; Function Attrs: nounwind uwtable
define internal fastcc noalias noundef ptr @Extra_CombineTwoNodes(ptr noundef %0, ptr noundef %1, ptr noundef %2, ptr noundef %3) unnamed_addr #0 {
  %calloc = tail call dereferenceable_or_null(24) ptr @calloc(i64 1, i64 24)
  %5 = getelementptr inbounds nuw i8, ptr %2, i64 40
  %6 = load ptr, ptr %5, align 8, !tbaa !56
  %7 = load ptr, ptr %6, align 8, !tbaa !30
  %8 = getelementptr inbounds nuw i8, ptr %3, i64 40
  %9 = load ptr, ptr %8, align 8, !tbaa !56
  %10 = load ptr, ptr %9, align 8, !tbaa !30
  %11 = tail call ptr @Cudd_bddAndAbstract(ptr noundef %0, ptr noundef %7, ptr noundef %10, ptr noundef %1) #10
  store ptr %11, ptr %calloc, align 8, !tbaa !30
  tail call void @Cudd_Ref(ptr noundef %11) #10
  %12 = load ptr, ptr %5, align 8, !tbaa !56
  %13 = getelementptr inbounds nuw i8, ptr %12, i64 8
  %14 = load ptr, ptr %13, align 8, !tbaa !33
  %15 = load ptr, ptr %8, align 8, !tbaa !56
  %16 = getelementptr inbounds nuw i8, ptr %15, i64 8
  %17 = load ptr, ptr %16, align 8, !tbaa !33
  %18 = tail call ptr @Cudd_bddAndAbstract(ptr noundef %0, ptr noundef %14, ptr noundef %17, ptr noundef %1) #10
  %19 = getelementptr inbounds nuw i8, ptr %calloc, i64 8
  store ptr %18, ptr %19, align 8, !tbaa !33
  tail call void @Cudd_Ref(ptr noundef %18) #10
  %20 = tail call i32 @Extra_bddSuppSize(ptr noundef %0, ptr noundef %18) #10
  %21 = trunc i32 %20 to i16
  %22 = getelementptr inbounds nuw i8, ptr %calloc, i64 20
  store i16 %21, ptr %22, align 4, !tbaa !34
  %23 = tail call i32 @Cudd_DagSize(ptr noundef %11) #10
  %24 = getelementptr inbounds nuw i8, ptr %calloc, i64 16
  store i32 %23, ptr %24, align 8, !tbaa !35
  %25 = getelementptr inbounds nuw i8, ptr %calloc, i64 22
  store i16 -1, ptr %25, align 2, !tbaa !36
  %calloc40 = tail call dereferenceable_or_null(48) ptr @calloc(i64 1, i64 48)
  store ptr %0, ptr %calloc40, align 8, !tbaa !53
  %26 = getelementptr inbounds nuw i8, ptr %calloc40, i64 40
  store ptr %calloc, ptr %26, align 8, !tbaa !56
  %27 = getelementptr inbounds nuw i8, ptr %calloc40, i64 24
  store ptr %2, ptr %27, align 8, !tbaa !74
  %28 = getelementptr inbounds nuw i8, ptr %calloc40, i64 32
  store ptr %3, ptr %28, align 8, !tbaa !75
  %29 = getelementptr inbounds nuw i8, ptr %2, i64 16
  %30 = load ptr, ptr %29, align 8, !tbaa !60
  %31 = getelementptr inbounds nuw i8, ptr %3, i64 16
  %32 = load ptr, ptr %31, align 8, !tbaa !60
  %33 = tail call ptr @Cudd_bddAndAbstract(ptr noundef %0, ptr noundef %30, ptr noundef %32, ptr noundef %1) #10
  %34 = getelementptr inbounds nuw i8, ptr %calloc40, i64 16
  store ptr %33, ptr %34, align 8, !tbaa !60
  tail call void @Cudd_Ref(ptr noundef %33) #10
  %35 = getelementptr inbounds nuw i8, ptr %0, i64 40
  %36 = load ptr, ptr %35, align 8, !tbaa !39
  %.not = icmp eq ptr %1, %36
  br i1 %.not, label %39, label %37

37:                                               ; preds = %4
  %38 = getelementptr inbounds nuw i8, ptr %calloc40, i64 8
  store ptr %1, ptr %38, align 8, !tbaa !58
  tail call void @Cudd_Ref(ptr noundef %1) #10
  br label %39

39:                                               ; preds = %37, %4
  ret ptr %calloc40
}